target datalayout = "e-m:e-p270:32:32-p271:32:32-p272:64:64-i64:64-i128:128-f80:128-n8:16:32:64-S128"
target triple = "x86_64-pc-linux-gnu"

%struct.client = type { i64, i64, ptr, i8, i8, i8, i8, i32, ptr, ptr, ptr, ptr, ptr, i64, i64, i32, ptr, i32, i32, ptr, i64, ptr, ptr, ptr, ptr, ptr, i32, i32, i64, ptr, i64, ptr, i64, i64, i64, i32, ptr, i64, i64, i32, i32, i32, i32, i64, i64, ptr, i64, i64, i64, i64, i64, i64, i64, i64, [41 x i8], i32, ptr, i32, i32, i64, %struct.multiState, %struct.blockingState, i64, ptr, ptr, ptr, ptr, ptr, ptr, ptr, ptr, ptr, ptr, ptr, ptr, ptr, ptr, i64, ptr, i64, i32, ptr, ptr, ptr, i64, %struct.listNode, i64, i64, i32, i64, ptr }
%struct.multiState = type { ptr, i32, i32, i32, i64, i32 }
%struct.blockingState = type { i32, i64, i32, ptr, i32, i32, i64, ptr, ptr, i64 }
%struct.listNode = type { ptr, ptr, ptr }
%struct.listIter = type { ptr, i32 }
%struct.list = type { ptr, ptr, ptr, ptr, ptr, i64 }
%struct.watchedKey = type { %struct.listNode, ptr, ptr, ptr, i8 }

; Function Attrs: nounwind uwtable
define dso_local i32 @isWatchedKeyExpired(ptr noundef %0) #0 {
  %2 = alloca i32, align 4
  %3 = alloca ptr, align 8
  %4 = alloca %struct.listIter, align 8
  %5 = alloca ptr, align 8
  %6 = alloca ptr, align 8
  %7 = alloca i32, align 4
  store ptr %0, ptr %3, align 8, !tbaa !5
  call void @llvm.lifetime.start.p0(i64 16, ptr %4) #8
  call void @llvm.lifetime.start.p0(i64 8, ptr %5) #8
  call void @llvm.lifetime.start.p0(i64 8, ptr %6) #8
  %8 = load ptr, ptr %3, align 8, !tbaa !5
  %9 = getelementptr inbounds nuw %struct.client, ptr %8, i32 0, i32 63
  %10 = load ptr, ptr %9, align 8, !tbaa !53
  %11 = getelementptr inbounds nuw %struct.list, ptr %10, i32 0, i32 5
  %12 = load i64, ptr %11, align 8, !tbaa !54
  %13 = icmp eq i64 %12, 0
  br i1 %13, label %14, label %15

14:                                               ; preds = %1
  store i32 0, ptr %2, align 4
  store i32 1, ptr %7, align 4
  br label %45

15:                                               ; preds = %1
  %16 = load ptr, ptr %3, align 8, !tbaa !5
  %17 = getelementptr inbounds nuw %struct.client, ptr %16, i32 0, i32 63
  %18 = load ptr, ptr %17, align 8, !tbaa !53
  call void @listRewind(ptr noundef %18, ptr noundef %4)
  br label %19

19:                                               ; preds = %43, %32, %15
  %20 = call ptr @listNext(ptr noundef %4)
  store ptr %20, ptr %5, align 8, !tbaa !56
  %21 = icmp ne ptr %20, null
  br i1 %21, label %22, label %44

22:                                               ; preds = %19
  %23 = load ptr, ptr %5, align 8, !tbaa !56
  %24 = getelementptr inbounds nuw %struct.listNode, ptr %23, i32 0, i32 2
  %25 = load ptr, ptr %24, align 8, !tbaa !57
  store ptr %25, ptr %6, align 8, !tbaa !58
  %26 = load ptr, ptr %6, align 8, !tbaa !58
  %27 = getelementptr inbounds nuw %struct.watchedKey, ptr %26, i32 0, i32 4
  %28 = load i8, ptr %27, align 8
  %29 = and i8 %28, 1
  %30 = zext i8 %29 to i32
  %31 = icmp ne i32 %30, 0
  br i1 %31, label %32, label %33

32:                                               ; preds = %22
  br label %19, !llvm.loop !102

33:                                               ; preds = %22
  %34 = load ptr, ptr %6, align 8, !tbaa !58
  %35 = getelementptr inbounds nuw %struct.watchedKey, ptr %34, i32 0, i32 2
  %36 = load ptr, ptr %35, align 8, !tbaa !61
  %37 = load ptr, ptr %6, align 8, !tbaa !58
  %38 = getelementptr inbounds nuw %struct.watchedKey, ptr %37, i32 0, i32 1
  %39 = load ptr, ptr %38, align 8, !tbaa !66
  %40 = call i32 @keyIsExpired(ptr noundef %36, ptr noundef %39)
  %41 = icmp ne i32 %40, 0
  br i1 %41, label %42, label %43

42:                                               ; preds = %33
  store i32 1, ptr %2, align 4
  store i32 1, ptr %7, align 4
  br label %45

43:                                               ; preds = %33
  br label %19, !llvm.loop !102

44:                                               ; preds = %19
  store i32 0, ptr %2, align 4
  store i32 1, ptr %7, align 4
  br label %45

45:                                               ; preds = %44, %42, %14
  call void @llvm.lifetime.end.p0(i64 8, ptr %6) #8
  call void @llvm.lifetime.end.p0(i64 8, ptr %5) #8
  call void @llvm.lifetime.end.p0(i64 16, ptr %4) #8
  %46 = load i32, ptr %2, align 4
  ret i32 %46
}