; Function Attrs: nounwind uwtable
define dso_local range(i32 0, 2) i32 @isWatchedKeyExpired(ptr noundef readonly captures(none) %0) local_unnamed_addr #1 {
  %2 = alloca %struct.listIter, align 8
  call void @llvm.lifetime.start.p0(i64 16, ptr nonnull %2) #10
  %3 = getelementptr inbounds nuw i8, ptr %0, i64 560
  %4 = load ptr, ptr %3, align 8, !tbaa !48
  %5 = getelementptr inbounds nuw i8, ptr %4, i64 40
  %6 = load i64, ptr %5, align 8, !tbaa !49
  %7 = icmp eq i64 %6, 0
  br i1 %7, label %.loopexit, label %8

8:                                                ; preds = %1
  call void @listRewind(ptr noundef nonnull %4, ptr noundef nonnull %2) #10
  %9 = call ptr @listNext(ptr noundef nonnull %2) #10
  %.not9 = icmp eq ptr %9, null
  br i1 %.not9, label %.loopexit, label %.lr.ph

.lr.ph:                                           ; preds = %8, %.backedge
  %10 = phi ptr [ %16, %.backedge ], [ %9, %8 ]
  %11 = getelementptr inbounds nuw i8, ptr %10, i64 16
  %12 = load ptr, ptr %11, align 8, !tbaa !51
  %13 = getelementptr inbounds nuw i8, ptr %12, i64 48
  %14 = load i8, ptr %13, align 8
  %15 = and i8 %14, 1
  %.not7 = icmp eq i8 %15, 0
  br i1 %.not7, label %17, label %.backedge

.backedge:                                        ; preds = %.lr.ph, %17
  %16 = call ptr @listNext(ptr noundef nonnull %2) #10
  %.not = icmp eq ptr %16, null
  br i1 %.not, label %.loopexit, label %.lr.ph, !llvm.loop !87

17:                                               ; preds = %.lr.ph
  %18 = getelementptr inbounds nuw i8, ptr %12, i64 32
  %19 = load ptr, ptr %18, align 8, !tbaa !56
  %20 = getelementptr inbounds nuw i8, ptr %12, i64 24
  %21 = load ptr, ptr %20, align 8, !tbaa !60
  %22 = call i32 @keyIsExpired(ptr noundef %19, ptr noundef %21) #10
  %.not8 = icmp eq i32 %22, 0
  br i1 %.not8, label %.backedge, label %.loopexit

.loopexit:                                        ; preds = %17, %.backedge, %8, %1
  %.0 = phi i32 [ 0, %1 ], [ 0, %8 ], [ 1, %17 ], [ 0, %.backedge ]
  call void @llvm.lifetime.end.p0(i64 16, ptr nonnull %2) #10
  ret i32 %.0
}